; Function Attrs: nounwind uwtable
define void @Sfm_TimUpdateTiming(ptr noundef captures(none) %0, ptr noundef readnone captures(none) %1) local_unnamed_addr #0 {
  %3 = getelementptr inbounds nuw i8, ptr %0, i64 32
  %4 = getelementptr inbounds nuw i8, ptr %0, i64 16
  %5 = load ptr, ptr %4, align 8, !tbaa !51
  %6 = getelementptr i8, ptr %5, i64 32
  %.val6 = load ptr, ptr %6, align 8, !tbaa !39
  %7 = getelementptr i8, ptr %.val6, i64 4
  %.val6.val = load i32, ptr %7, align 4, !tbaa !53
  %8 = shl nsw i32 %.val6.val, 1
  %9 = getelementptr inbounds nuw i8, ptr %0, i64 36
  %10 = load i32, ptr %9, align 4, !tbaa !23
  %.not.i = icmp sgt i32 %8, %10
  br i1 %.not.i, label %11, label %Vec_IntFillExtra.exit

11:                                               ; preds = %2
  %12 = load i32, ptr %3, align 8, !tbaa !24
  %13 = shl nsw i32 %12, 1
  %14 = icmp sgt i32 %8, %13
  %.not.i.i = icmp slt i32 %12, %8
  br i1 %14, label %15, label %27

15:                                               ; preds = %11
  br i1 %.not.i.i, label %16, label %Vec_IntGrow.exit.i

16:                                               ; preds = %15
  %17 = getelementptr inbounds nuw i8, ptr %0, i64 40
  %18 = load ptr, ptr %17, align 8, !tbaa !3
  %.not9.i.i = icmp eq ptr %18, null
  %19 = sext i32 %8 to i64
  %20 = shl nsw i64 %19, 2
  br i1 %.not9.i.i, label %23, label %21

21:                                               ; preds = %16
  %22 = tail call ptr @realloc(ptr noundef nonnull %18, i64 noundef %20) #14
  br label %25

23:                                               ; preds = %16
  %24 = tail call noalias ptr @malloc(i64 noundef %20) #15
  br label %25

25:                                               ; preds = %23, %21
  %26 = phi ptr [ %22, %21 ], [ %24, %23 ]
  store ptr %26, ptr %17, align 8, !tbaa !3
  br label %Vec_IntGrow.exit.sink.split.i

27:                                               ; preds = %11
  br i1 %.not.i.i, label %28, label %Vec_IntGrow.exit.i

28:                                               ; preds = %27
  %29 = getelementptr inbounds nuw i8, ptr %0, i64 40
  %30 = load ptr, ptr %29, align 8, !tbaa !3
  %.not9.i21.i = icmp eq ptr %30, null
  %31 = sext i32 %13 to i64
  %32 = shl nsw i64 %31, 2
  br i1 %.not9.i21.i, label %35, label %33

33:                                               ; preds = %28
  %34 = tail call ptr @realloc(ptr noundef nonnull %30, i64 noundef %32) #14
  br label %37

35:                                               ; preds = %28
  %36 = tail call noalias ptr @malloc(i64 noundef %32) #15
  br label %37

37:                                               ; preds = %35, %33
  %38 = phi ptr [ %34, %33 ], [ %36, %35 ]
  store ptr %38, ptr %29, align 8, !tbaa !3
  br label %Vec_IntGrow.exit.sink.split.i

Vec_IntGrow.exit.sink.split.i:                    ; preds = %37, %25
  %.sink.i = phi i32 [ %13, %37 ], [ %8, %25 ]
  store i32 %.sink.i, ptr %3, align 8, !tbaa !24
  %.pre = load i32, ptr %9, align 4, !tbaa !23
  br label %Vec_IntGrow.exit.i

Vec_IntGrow.exit.i:                               ; preds = %Vec_IntGrow.exit.sink.split.i, %27, %15
  %39 = phi i32 [ %.pre, %Vec_IntGrow.exit.sink.split.i ], [ %10, %27 ], [ %10, %15 ]
  %40 = icmp slt i32 %39, %8
  br i1 %40, label %.lr.ph.i, label %._crit_edge.i

.lr.ph.i:                                         ; preds = %Vec_IntGrow.exit.i
  %41 = getelementptr inbounds nuw i8, ptr %0, i64 40
  %42 = load ptr, ptr %41, align 8, !tbaa !3
  %43 = sext i32 %39 to i64
  %44 = shl nsw i64 %43, 2
  %scevgep.i = getelementptr i8, ptr %42, i64 %44
  %45 = xor i32 %39, -1
  %46 = add i32 %8, %45
  %47 = zext i32 %46 to i64
  %48 = shl nuw nsw i64 %47, 2
  %49 = add nuw nsw i64 %48, 4
  tail call void @llvm.memset.p0.i64(ptr noundef nonnull align 4 dereferenceable(1) %scevgep.i, i8 0, i64 %49, i1 false), !tbaa !16
  br label %._crit_edge.i

._crit_edge.i:                                    ; preds = %.lr.ph.i, %Vec_IntGrow.exit.i
  store i32 %8, ptr %9, align 4, !tbaa !23
  %.pre18 = load ptr, ptr %4, align 8, !tbaa !51
  %.phi.trans.insert = getelementptr i8, ptr %.pre18, i64 32
  %.val.pre = load ptr, ptr %.phi.trans.insert, align 8, !tbaa !39
  %.phi.trans.insert20 = getelementptr i8, ptr %.val.pre, i64 4
  %.val.val.pre = load i32, ptr %.phi.trans.insert20, align 4, !tbaa !53
  %.pre23 = shl nsw i32 %.val.val.pre, 1
  br label %Vec_IntFillExtra.exit

Vec_IntFillExtra.exit:                            ; preds = %2, %._crit_edge.i
  %.pre-phi = phi i32 [ %8, %2 ], [ %.pre23, %._crit_edge.i ]
  %50 = getelementptr inbounds nuw i8, ptr %0, i64 48
  %51 = getelementptr inbounds nuw i8, ptr %0, i64 52
  %52 = load i32, ptr %51, align 4, !tbaa !23
  %.not.i7 = icmp sgt i32 %.pre-phi, %52
  br i1 %.not.i7, label %53, label %Vec_IntFillExtra.exit17

53:                                               ; preds = %Vec_IntFillExtra.exit
  %54 = load i32, ptr %50, align 8, !tbaa !24
  %55 = shl nsw i32 %54, 1
  %56 = icmp sgt i32 %.pre-phi, %55
  %.not.i.i8 = icmp slt i32 %54, %.pre-phi
  br i1 %56, label %57, label %69

57:                                               ; preds = %53
  br i1 %.not.i.i8, label %58, label %Vec_IntGrow.exit.i9

58:                                               ; preds = %57
  %59 = getelementptr inbounds nuw i8, ptr %0, i64 56
  %60 = load ptr, ptr %59, align 8, !tbaa !3
  %.not9.i.i16 = icmp eq ptr %60, null
  %61 = sext i32 %.pre-phi to i64
  %62 = shl nsw i64 %61, 2
  br i1 %.not9.i.i16, label %65, label %63

63:                                               ; preds = %58
  %64 = tail call ptr @realloc(ptr noundef nonnull %60, i64 noundef %62) #14
  br label %67

65:                                               ; preds = %58
  %66 = tail call noalias ptr @malloc(i64 noundef %62) #15
  br label %67

67:                                               ; preds = %65, %63
  %68 = phi ptr [ %64, %63 ], [ %66, %65 ]
  store ptr %68, ptr %59, align 8, !tbaa !3
  br label %Vec_IntGrow.exit.sink.split.i14

69:                                               ; preds = %53
  br i1 %.not.i.i8, label %70, label %Vec_IntGrow.exit.i9

70:                                               ; preds = %69
  %71 = getelementptr inbounds nuw i8, ptr %0, i64 56
  %72 = load ptr, ptr %71, align 8, !tbaa !3
  %.not9.i21.i13 = icmp eq ptr %72, null
  %73 = sext i32 %55 to i64
  %74 = shl nsw i64 %73, 2
  br i1 %.not9.i21.i13, label %77, label %75

75:                                               ; preds = %70
  %76 = tail call ptr @realloc(ptr noundef nonnull %72, i64 noundef %74) #14
  br label %79

77:                                               ; preds = %70
  %78 = tail call noalias ptr @malloc(i64 noundef %74) #15
  br label %79

79:                                               ; preds = %77, %75
  %80 = phi ptr [ %76, %75 ], [ %78, %77 ]
  store ptr %80, ptr %71, align 8, !tbaa !3
  br label %Vec_IntGrow.exit.sink.split.i14

Vec_IntGrow.exit.sink.split.i14:                  ; preds = %79, %67
  %.sink.i15 = phi i32 [ %55, %79 ], [ %.pre-phi, %67 ]
  store i32 %.sink.i15, ptr %50, align 8, !tbaa !24
  %.pre22 = load i32, ptr %51, align 4, !tbaa !23
  br label %Vec_IntGrow.exit.i9

Vec_IntGrow.exit.i9:                              ; preds = %Vec_IntGrow.exit.sink.split.i14, %69, %57
  %81 = phi i32 [ %.pre22, %Vec_IntGrow.exit.sink.split.i14 ], [ %52, %69 ], [ %52, %57 ]
  %82 = icmp slt i32 %81, %.pre-phi
  br i1 %82, label %.lr.ph.i11, label %._crit_edge.i10

.lr.ph.i11:                                       ; preds = %Vec_IntGrow.exit.i9
  %83 = getelementptr inbounds nuw i8, ptr %0, i64 56
  %84 = load ptr, ptr %83, align 8, !tbaa !3
  %85 = sext i32 %81 to i64
  %86 = shl nsw i64 %85, 2
  %scevgep.i12 = getelementptr i8, ptr %84, i64 %86
  %87 = xor i32 %81, -1
  %88 = add i32 %.pre-phi, %87
  %89 = zext i32 %88 to i64
  %90 = shl nuw nsw i64 %89, 2
  %91 = add nuw nsw i64 %90, 4
  tail call void @llvm.memset.p0.i64(ptr noundef nonnull align 4 dereferenceable(1) %scevgep.i12, i8 0, i64 %91, i1 false), !tbaa !16
  br label %._crit_edge.i10

._crit_edge.i10:                                  ; preds = %.lr.ph.i11, %Vec_IntGrow.exit.i9
  store i32 %.pre-phi, ptr %51, align 4, !tbaa !23
  br label %Vec_IntFillExtra.exit17

Vec_IntFillExtra.exit17:                          ; preds = %Vec_IntFillExtra.exit, %._crit_edge.i10
  %92 = tail call i32 @Sfm_TimTrace(ptr noundef nonnull %0)
  %93 = getelementptr inbounds nuw i8, ptr %0, i64 24
  store i32 %92, ptr %93, align 8, !tbaa !44
  ret void
}